; Function Attrs: nounwind uwtable
define hidden i32 @mbedtls_mpi_core_fill_random(ptr noundef %0, i64 noundef %1, i64 noundef %2, ptr noundef readonly captures(none) %3, ptr noundef %4) local_unnamed_addr #5 {
  %6 = lshr i64 %2, 3
  %7 = and i64 %2, 7
  %8 = icmp ne i64 %7, 0
  %9 = zext i1 %8 to i64
  %10 = add nuw nsw i64 %6, %9
  %11 = icmp ult i64 %1, %10
  br i1 %11, label %mbedtls_mpi_core_bigendian_to_host.exit, label %12

12:                                               ; preds = %5
  %13 = shl i64 %10, 3
  %14 = sub i64 %13, %2
  tail call void @llvm.memset.p0.i64(ptr align 8 %0, i8 0, i64 %14, i1 false)
  %15 = getelementptr inbounds nuw i8, ptr %0, i64 %13
  %16 = sub nuw i64 %1, %10
  %17 = shl i64 %16, 3
  tail call void @llvm.memset.p0.i64(ptr align 1 %15, i8 0, i64 %17, i1 false)
  %18 = getelementptr inbounds nuw i8, ptr %0, i64 %14
  %19 = tail call i32 %3(ptr noundef %4, ptr noundef %18, i64 noundef %2) #10
  %.not = icmp eq i32 %19, 0
  br i1 %.not, label %20, label %mbedtls_mpi_core_bigendian_to_host.exit

20:                                               ; preds = %12
  %21 = icmp eq i64 %10, 0
  %22 = getelementptr i64, ptr %0, i64 %10
  %.01214.i = getelementptr i8, ptr %22, i64 -8
  %.not15.i = icmp ugt ptr %0, %.01214.i
  %or.cond.i = or i1 %21, %.not15.i
  br i1 %or.cond.i, label %mbedtls_mpi_core_bigendian_to_host.exit, label %.lr.ph.i

.lr.ph.i:                                         ; preds = %20, %.lr.ph.i
  %.01217.i = phi ptr [ %.012.i, %.lr.ph.i ], [ %.01214.i, %20 ]
  %.016.i = phi ptr [ %27, %.lr.ph.i ], [ %0, %20 ]
  %23 = load i64, ptr %.016.i, align 8, !tbaa !3
  %24 = tail call noundef i64 @llvm.bswap.i64(i64 %23)
  %25 = load i64, ptr %.01217.i, align 8, !tbaa !3
  %26 = tail call noundef i64 @llvm.bswap.i64(i64 %25)
  store i64 %26, ptr %.016.i, align 8, !tbaa !3
  store i64 %24, ptr %.01217.i, align 8, !tbaa !3
  %27 = getelementptr inbounds nuw i8, ptr %.016.i, i64 8
  %.012.i = getelementptr i8, ptr %.01217.i, i64 -8
  %.not.i = icmp ugt ptr %27, %.012.i
  br i1 %.not.i, label %mbedtls_mpi_core_bigendian_to_host.exit, label %.lr.ph.i, !llvm.loop !9

mbedtls_mpi_core_bigendian_to_host.exit:          ; preds = %.lr.ph.i, %20, %12, %5
  %.0 = phi i32 [ -4, %5 ], [ %19, %12 ], [ 0, %20 ], [ 0, %.lr.ph.i ]
  ret i32 %.0
}